target datalayout = "e-m:e-p270:32:32-p271:32:32-p272:64:64-i64:64-i128:128-f80:128-n8:16:32:64-S128"
target triple = "x86_64-pc-linux-gnu"

%struct.prolog_state = type { ptr, i32, i32, i32, i32, i32 }

; Function Attrs: nounwind uwtable
define internal i32 @externalSubset0(ptr noundef %0, i32 noundef %1, ptr noundef %2, ptr noundef %3, ptr noundef %4) #0 {
  %6 = alloca i32, align 4
  %7 = alloca ptr, align 8
  %8 = alloca i32, align 4
  %9 = alloca ptr, align 8
  %10 = alloca ptr, align 8
  %11 = alloca ptr, align 8
  store ptr %0, ptr %7, align 8, !tbaa !3
  store i32 %1, ptr %8, align 4, !tbaa !14
  store ptr %2, ptr %9, align 8, !tbaa !15
  store ptr %3, ptr %10, align 8, !tbaa !15
  store ptr %4, ptr %11, align 8, !tbaa !17
  %12 = load ptr, ptr %7, align 8, !tbaa !3
  %13 = getelementptr inbounds nuw %struct.prolog_state, ptr %12, i32 0, i32 0
  store ptr @externalSubset1, ptr %13, align 8, !tbaa !8
  %14 = load i32, ptr %8, align 4, !tbaa !14
  %15 = icmp eq i32 %14, 12
  br i1 %15, label %16, label %17

16:                                               ; preds = %5
  store i32 57, ptr %6, align 4
  br label %24

17:                                               ; preds = %5
  %18 = load ptr, ptr %7, align 8, !tbaa !3
  %19 = load i32, ptr %8, align 4, !tbaa !14
  %20 = load ptr, ptr %9, align 8, !tbaa !15
  %21 = load ptr, ptr %10, align 8, !tbaa !15
  %22 = load ptr, ptr %11, align 8, !tbaa !17
  %23 = call i32 @externalSubset1(ptr noundef %18, i32 noundef %19, ptr noundef %20, ptr noundef %21, ptr noundef %22)
  store i32 %23, ptr %6, align 4
  br label %24

24:                                               ; preds = %17, %16
  %25 = load i32, ptr %6, align 4
  ret i32 %25
}