; Function Attrs: nounwind uwtable
define internal range(i32 -1, 61) i32 @externalSubset0(ptr noundef captures(none) initializes((0, 8)) %0, i32 noundef %1, ptr noundef %2, ptr noundef %3, ptr noundef %4) #1 {
  store ptr @externalSubset1, ptr %0, align 8, !tbaa !3
  %6 = icmp eq i32 %1, 12
  br i1 %6, label %9, label %7

7:                                                ; preds = %5
  %8 = tail call i32 @externalSubset1(ptr noundef nonnull %0, i32 noundef %1, ptr noundef %2, ptr noundef %3, ptr noundef %4)
  br label %9

9:                                                ; preds = %5, %7
  %.0 = phi i32 [ %8, %7 ], [ 57, %5 ]
  ret i32 %.0
}